; Function Attrs: nounwind uwtable
define hidden void @je_buf_writer_cb(ptr noundef captures(none) %0, ptr noundef %1) local_unnamed_addr #0 {
  %3 = getelementptr inbounds nuw i8, ptr %0, i64 16
  %4 = load ptr, ptr %3, align 8, !tbaa !31
  %5 = icmp eq ptr %4, null
  br i1 %5, label %6, label %10

6:                                                ; preds = %2
  %7 = load ptr, ptr %0, align 8, !tbaa !4
  %8 = getelementptr inbounds nuw i8, ptr %0, i64 8
  %9 = load ptr, ptr %8, align 8, !tbaa !12
  tail call void %7(ptr noundef %9, ptr noundef %1) #8
  br label %.loopexit

10:                                               ; preds = %2
  %11 = tail call i64 @strlen(ptr noundef nonnull dereferenceable(1) %1) #9
  %.not = icmp eq i64 %11, 0
  br i1 %.not, label %.loopexit, label %.lr.ph

.lr.ph:                                           ; preds = %10
  %12 = getelementptr inbounds nuw i8, ptr %0, i64 32
  %13 = getelementptr inbounds nuw i8, ptr %0, i64 24
  %14 = getelementptr inbounds nuw i8, ptr %0, i64 8
  %.pre = load i64, ptr %12, align 8, !tbaa !38
  br label %15

15:                                               ; preds = %.lr.ph, %je_buf_writer_flush.exit
  %16 = phi i64 [ %.pre, %.lr.ph ], [ %35, %je_buf_writer_flush.exit ]
  %.030 = phi i64 [ 0, %.lr.ph ], [ %36, %je_buf_writer_flush.exit ]
  %17 = load i64, ptr %13, align 8, !tbaa !37
  %18 = icmp eq i64 %16, %17
  %.pre33 = load ptr, ptr %3, align 8, !tbaa !31
  br i1 %18, label %19, label %je_buf_writer_flush.exit

19:                                               ; preds = %15
  %20 = icmp eq ptr %.pre33, null
  br i1 %20, label %je_buf_writer_flush.exit, label %21

21:                                               ; preds = %19
  %22 = getelementptr inbounds nuw i8, ptr %.pre33, i64 %16
  store i8 0, ptr %22, align 1, !tbaa !14
  %23 = load ptr, ptr %0, align 8, !tbaa !4
  %24 = load ptr, ptr %14, align 8, !tbaa !12
  %25 = load ptr, ptr %3, align 8, !tbaa !31
  tail call void %23(ptr noundef %24, ptr noundef %25) #8
  store i64 0, ptr %12, align 8, !tbaa !38
  %.pre31 = load i64, ptr %13, align 8, !tbaa !37
  %.pre32 = load ptr, ptr %3, align 8, !tbaa !31
  br label %je_buf_writer_flush.exit

je_buf_writer_flush.exit:                         ; preds = %21, %19, %15
  %26 = phi ptr [ %.pre32, %21 ], [ null, %19 ], [ %.pre33, %15 ]
  %27 = phi i64 [ 0, %21 ], [ %16, %19 ], [ %16, %15 ]
  %28 = phi i64 [ %.pre31, %21 ], [ %16, %19 ], [ %17, %15 ]
  %29 = sub i64 %11, %.030
  %30 = sub i64 %28, %27
  %31 = tail call i64 @llvm.umin.i64(i64 %29, i64 %30)
  %32 = getelementptr inbounds nuw i8, ptr %26, i64 %27
  %33 = getelementptr inbounds nuw i8, ptr %1, i64 %.030
  tail call void @llvm.memcpy.p0.p0.i64(ptr align 1 %32, ptr nonnull align 1 %33, i64 %31, i1 false)
  %34 = load i64, ptr %12, align 8, !tbaa !38
  %35 = add i64 %34, %31
  store i64 %35, ptr %12, align 8, !tbaa !38
  %36 = add i64 %31, %.030
  %37 = icmp ult i64 %36, %11
  br i1 %37, label %15, label %.loopexit, !llvm.loop !39

.loopexit:                                        ; preds = %je_buf_writer_flush.exit, %10, %6
  ret void
}